target datalayout = "e-m:e-p270:32:32-p271:32:32-p272:64:64-i64:64-i128:128-f80:128-n8:16:32:64-S128"
target triple = "x86_64-pc-linux-gnu"

@.str = private unnamed_addr constant [41 x i8] c"../openssl/test/evp_pkey_provided_test.c\00", align 1
@.str.23 = private unnamed_addr constant [2 x i8] c"1\00", align 1
@test_evp_pkey_get_bn_param_large.n_data = internal global [2050 x i8] zeroinitializer, align 16
@test_evp_pkey_get_bn_param_large.e_data = internal constant [3 x i8] c"\01\00\01", align 1
@test_evp_pkey_get_bn_param_large.d_data = internal constant [4 x i8] c"\993\13{", align 1
@.str.34 = private unnamed_addr constant [27 x i8] c"bld = OSSL_PARAM_BLD_new()\00", align 1
@.str.35 = private unnamed_addr constant [44 x i8] c"n = BN_bin2bn(n_data, sizeof(n_data), NULL)\00", align 1
@.str.36 = private unnamed_addr constant [44 x i8] c"e = BN_bin2bn(e_data, sizeof(e_data), NULL)\00", align 1
@.str.37 = private unnamed_addr constant [44 x i8] c"d = BN_bin2bn(d_data, sizeof(d_data), NULL)\00", align 1
@.str.38 = private unnamed_addr constant [54 x i8] c"OSSL_PARAM_BLD_push_BN(bld, OSSL_PKEY_PARAM_RSA_N, n)\00", align 1
@.str.39 = private unnamed_addr constant [2 x i8] c"n\00", align 1
@.str.40 = private unnamed_addr constant [54 x i8] c"OSSL_PARAM_BLD_push_BN(bld, OSSL_PKEY_PARAM_RSA_E, e)\00", align 1
@.str.41 = private unnamed_addr constant [2 x i8] c"e\00", align 1
@.str.42 = private unnamed_addr constant [54 x i8] c"OSSL_PARAM_BLD_push_BN(bld, OSSL_PKEY_PARAM_RSA_D, d)\00", align 1
@.str.43 = private unnamed_addr constant [2 x i8] c"d\00", align 1
@.str.44 = private unnamed_addr constant [47 x i8] c"fromdata_params = OSSL_PARAM_BLD_to_param(bld)\00", align 1
@.str.45 = private unnamed_addr constant [52 x i8] c"ctx = EVP_PKEY_CTX_new_from_name(NULL, \22RSA\22, NULL)\00", align 1
@.str.46 = private unnamed_addr constant [4 x i8] c"RSA\00", align 1
@.str.47 = private unnamed_addr constant [28 x i8] c"EVP_PKEY_fromdata_init(ctx)\00", align 1
@.str.48 = private unnamed_addr constant [63 x i8] c"EVP_PKEY_fromdata(ctx, &pk, EVP_PKEY_KEYPAIR, fromdata_params)\00", align 1
@.str.49 = private unnamed_addr constant [51 x i8] c"key_ctx = EVP_PKEY_CTX_new_from_pkey(NULL, pk, \22\22)\00", align 1
@.str.50 = private unnamed_addr constant [1 x i8] zeroinitializer, align 1
@.str.51 = private unnamed_addr constant [57 x i8] c"EVP_PKEY_get_bn_param(pk, OSSL_PKEY_PARAM_RSA_N, &n_out)\00", align 1
@.str.52 = private unnamed_addr constant [6 x i8] c"n_out\00", align 1

; Function Attrs: nounwind uwtable
define internal i32 @test_evp_pkey_get_bn_param_large() #0 {
  %1 = alloca i32, align 4
  %2 = alloca ptr, align 8
  %3 = alloca ptr, align 8
  %4 = alloca ptr, align 8
  %5 = alloca ptr, align 8
  %6 = alloca ptr, align 8
  %7 = alloca ptr, align 8
  %8 = alloca ptr, align 8
  %9 = alloca ptr, align 8
  %10 = alloca ptr, align 8
  call void @llvm.lifetime.start.p0(i64 4, ptr %1) #6
  store i32 0, ptr %1, align 4, !tbaa !9
  call void @llvm.lifetime.start.p0(i64 8, ptr %2) #6
  store ptr null, ptr %2, align 8, !tbaa !13
  call void @llvm.lifetime.start.p0(i64 8, ptr %3) #6
  store ptr null, ptr %3, align 8, !tbaa !13
  call void @llvm.lifetime.start.p0(i64 8, ptr %4) #6
  store ptr null, ptr %4, align 8, !tbaa !17
  call void @llvm.lifetime.start.p0(i64 8, ptr %5) #6
  store ptr null, ptr %5, align 8, !tbaa !19
  call void @llvm.lifetime.start.p0(i64 8, ptr %6) #6
  store ptr null, ptr %6, align 8, !tbaa !15
  call void @llvm.lifetime.start.p0(i64 8, ptr %7) #6
  store ptr null, ptr %7, align 8, !tbaa !21
  call void @llvm.lifetime.start.p0(i64 8, ptr %8) #6
  store ptr null, ptr %8, align 8, !tbaa !21
  call void @llvm.lifetime.start.p0(i64 8, ptr %9) #6
  store ptr null, ptr %9, align 8, !tbaa !21
  call void @llvm.lifetime.start.p0(i64 8, ptr %10) #6
  store ptr null, ptr %10, align 8, !tbaa !21
  call void @llvm.memset.p0.i64(ptr align 16 @test_evp_pkey_get_bn_param_large.n_data, i8 -50, i64 2050, i1 false)
  %11 = call ptr @OSSL_PARAM_BLD_new()
  store ptr %11, ptr %5, align 8, !tbaa !19
  %12 = call i32 @test_ptr(ptr noundef @.str, i32 noundef 867, ptr noundef @.str.34, ptr noundef %11)
  %13 = icmp ne i32 %12, 0
  br i1 %13, label %14, label %87

14:                                               ; preds = %0
  %15 = call ptr @BN_bin2bn(ptr noundef @test_evp_pkey_get_bn_param_large.n_data, i32 noundef 2050, ptr noundef null)
  store ptr %15, ptr %7, align 8, !tbaa !21
  %16 = call i32 @test_ptr(ptr noundef @.str, i32 noundef 868, ptr noundef @.str.35, ptr noundef %15)
  %17 = icmp ne i32 %16, 0
  br i1 %17, label %18, label %87

18:                                               ; preds = %14
  %19 = call ptr @BN_bin2bn(ptr noundef @test_evp_pkey_get_bn_param_large.e_data, i32 noundef 3, ptr noundef null)
  store ptr %19, ptr %8, align 8, !tbaa !21
  %20 = call i32 @test_ptr(ptr noundef @.str, i32 noundef 869, ptr noundef @.str.36, ptr noundef %19)
  %21 = icmp ne i32 %20, 0
  br i1 %21, label %22, label %87

22:                                               ; preds = %18
  %23 = call ptr @BN_bin2bn(ptr noundef @test_evp_pkey_get_bn_param_large.d_data, i32 noundef 4, ptr noundef null)
  store ptr %23, ptr %9, align 8, !tbaa !21
  %24 = call i32 @test_ptr(ptr noundef @.str, i32 noundef 870, ptr noundef @.str.37, ptr noundef %23)
  %25 = icmp ne i32 %24, 0
  br i1 %25, label %26, label %87

26:                                               ; preds = %22
  %27 = load ptr, ptr %5, align 8, !tbaa !19
  %28 = load ptr, ptr %7, align 8, !tbaa !21
  %29 = call i32 @OSSL_PARAM_BLD_push_BN(ptr noundef %27, ptr noundef @.str.39, ptr noundef %28)
  %30 = icmp ne i32 %29, 0
  %31 = zext i1 %30 to i32
  %32 = call i32 @test_true(ptr noundef @.str, i32 noundef 871, ptr noundef @.str.38, i32 noundef %31)
  %33 = icmp ne i32 %32, 0
  br i1 %33, label %34, label %87

34:                                               ; preds = %26
  %35 = load ptr, ptr %5, align 8, !tbaa !19
  %36 = load ptr, ptr %8, align 8, !tbaa !21
  %37 = call i32 @OSSL_PARAM_BLD_push_BN(ptr noundef %35, ptr noundef @.str.41, ptr noundef %36)
  %38 = icmp ne i32 %37, 0
  %39 = zext i1 %38 to i32
  %40 = call i32 @test_true(ptr noundef @.str, i32 noundef 872, ptr noundef @.str.40, i32 noundef %39)
  %41 = icmp ne i32 %40, 0
  br i1 %41, label %42, label %87

42:                                               ; preds = %34
  %43 = load ptr, ptr %5, align 8, !tbaa !19
  %44 = load ptr, ptr %9, align 8, !tbaa !21
  %45 = call i32 @OSSL_PARAM_BLD_push_BN(ptr noundef %43, ptr noundef @.str.43, ptr noundef %44)
  %46 = icmp ne i32 %45, 0
  %47 = zext i1 %46 to i32
  %48 = call i32 @test_true(ptr noundef @.str, i32 noundef 873, ptr noundef @.str.42, i32 noundef %47)
  %49 = icmp ne i32 %48, 0
  br i1 %49, label %50, label %87

50:                                               ; preds = %42
  %51 = load ptr, ptr %5, align 8, !tbaa !19
  %52 = call ptr @OSSL_PARAM_BLD_to_param(ptr noundef %51)
  store ptr %52, ptr %6, align 8, !tbaa !15
  %53 = call i32 @test_ptr(ptr noundef @.str, i32 noundef 874, ptr noundef @.str.44, ptr noundef %52)
  %54 = icmp ne i32 %53, 0
  br i1 %54, label %55, label %87

55:                                               ; preds = %50
  %56 = call ptr @EVP_PKEY_CTX_new_from_name(ptr noundef null, ptr noundef @.str.46, ptr noundef null)
  store ptr %56, ptr %2, align 8, !tbaa !13
  %57 = call i32 @test_ptr(ptr noundef @.str, i32 noundef 875, ptr noundef @.str.45, ptr noundef %56)
  %58 = icmp ne i32 %57, 0
  br i1 %58, label %59, label %87

59:                                               ; preds = %55
  %60 = load ptr, ptr %2, align 8, !tbaa !13
  %61 = call i32 @EVP_PKEY_fromdata_init(ptr noundef %60)
  %62 = call i32 @test_int_eq(ptr noundef @.str, i32 noundef 876, ptr noundef @.str.47, ptr noundef @.str.23, i32 noundef %61, i32 noundef 1)
  %63 = icmp ne i32 %62, 0
  br i1 %63, label %64, label %87

64:                                               ; preds = %59
  %65 = load ptr, ptr %2, align 8, !tbaa !13
  %66 = load ptr, ptr %6, align 8, !tbaa !15
  %67 = call i32 @EVP_PKEY_fromdata(ptr noundef %65, ptr noundef %4, i32 noundef 135, ptr noundef %66)
  %68 = call i32 @test_int_eq(ptr noundef @.str, i32 noundef 878, ptr noundef @.str.48, ptr noundef @.str.23, i32 noundef %67, i32 noundef 1)
  %69 = icmp ne i32 %68, 0
  br i1 %69, label %70, label %87

70:                                               ; preds = %64
  %71 = load ptr, ptr %4, align 8, !tbaa !17
  %72 = call ptr @EVP_PKEY_CTX_new_from_pkey(ptr noundef null, ptr noundef %71, ptr noundef @.str.50)
  store ptr %72, ptr %3, align 8, !tbaa !13
  %73 = call i32 @test_ptr(ptr noundef @.str, i32 noundef 879, ptr noundef @.str.49, ptr noundef %72)
  %74 = icmp ne i32 %73, 0
  br i1 %74, label %75, label %87

75:                                               ; preds = %70
  %76 = load ptr, ptr %4, align 8, !tbaa !17
  %77 = call i32 @EVP_PKEY_get_bn_param(ptr noundef %76, ptr noundef @.str.39, ptr noundef %10)
  %78 = icmp ne i32 %77, 0
  %79 = zext i1 %78 to i32
  %80 = call i32 @test_true(ptr noundef @.str, i32 noundef 880, ptr noundef @.str.51, i32 noundef %79)
  %81 = icmp ne i32 %80, 0
  br i1 %81, label %82, label %87

82:                                               ; preds = %75
  %83 = load ptr, ptr %7, align 8, !tbaa !21
  %84 = load ptr, ptr %10, align 8, !tbaa !21
  %85 = call i32 @test_BN_eq(ptr noundef @.str, i32 noundef 881, ptr noundef @.str.39, ptr noundef @.str.52, ptr noundef %83, ptr noundef %84)
  %86 = icmp ne i32 %85, 0
  br i1 %86, label %88, label %87

87:                                               ; preds = %82, %75, %70, %64, %59, %55, %50, %42, %34, %26, %22, %18, %14, %0
  br label %89

88:                                               ; preds = %82
  store i32 1, ptr %1, align 4, !tbaa !9
  br label %89

89:                                               ; preds = %88, %87
  %90 = load ptr, ptr %10, align 8, !tbaa !21
  call void @BN_free(ptr noundef %90)
  %91 = load ptr, ptr %7, align 8, !tbaa !21
  call void @BN_free(ptr noundef %91)
  %92 = load ptr, ptr %8, align 8, !tbaa !21
  call void @BN_free(ptr noundef %92)
  %93 = load ptr, ptr %9, align 8, !tbaa !21
  call void @BN_free(ptr noundef %93)
  %94 = load ptr, ptr %4, align 8, !tbaa !17
  call void @EVP_PKEY_free(ptr noundef %94)
  %95 = load ptr, ptr %3, align 8, !tbaa !13
  call void @EVP_PKEY_CTX_free(ptr noundef %95)
  %96 = load ptr, ptr %2, align 8, !tbaa !13
  call void @EVP_PKEY_CTX_free(ptr noundef %96)
  %97 = load ptr, ptr %6, align 8, !tbaa !15
  call void @OSSL_PARAM_free(ptr noundef %97)
  %98 = load ptr, ptr %5, align 8, !tbaa !19
  call void @OSSL_PARAM_BLD_free(ptr noundef %98)
  %99 = load i32, ptr %1, align 4, !tbaa !9
  call void @llvm.lifetime.end.p0(i64 8, ptr %10) #6
  call void @llvm.lifetime.end.p0(i64 8, ptr %9) #6
  call void @llvm.lifetime.end.p0(i64 8, ptr %8) #6
  call void @llvm.lifetime.end.p0(i64 8, ptr %7) #6
  call void @llvm.lifetime.end.p0(i64 8, ptr %6) #6
  call void @llvm.lifetime.end.p0(i64 8, ptr %5) #6
  call void @llvm.lifetime.end.p0(i64 8, ptr %4) #6
  call void @llvm.lifetime.end.p0(i64 8, ptr %3) #6
  call void @llvm.lifetime.end.p0(i64 8, ptr %2) #6
  call void @llvm.lifetime.end.p0(i64 4, ptr %1) #6
  ret i32 %99
}