; Function Attrs: nounwind uwtable
define internal range(i32 0, 2) i32 @test_evp_pkey_get_bn_param_large() #0 {
  %1 = alloca ptr, align 8
  %2 = alloca ptr, align 8
  call void @llvm.lifetime.start.p0(i64 8, ptr nonnull %1) #6
  store ptr null, ptr %1, align 8, !tbaa !15
  call void @llvm.lifetime.start.p0(i64 8, ptr nonnull %2) #6
  store ptr null, ptr %2, align 8, !tbaa !17
  tail call void @llvm.memset.p0.i64(ptr noundef nonnull align 16 dereferenceable(2050) @test_evp_pkey_get_bn_param_large.n_data, i8 -50, i64 2050, i1 false)
  %3 = tail call ptr @OSSL_PARAM_BLD_new() #6
  %4 = tail call i32 @test_ptr(ptr noundef nonnull @.str, i32 noundef 867, ptr noundef nonnull @.str.34, ptr noundef %3) #6
  %.not = icmp eq i32 %4, 0
  br i1 %.not, label %53, label %5

5:                                                ; preds = %0
  %6 = tail call ptr @BN_bin2bn(ptr noundef nonnull @test_evp_pkey_get_bn_param_large.n_data, i32 noundef 2050, ptr noundef null) #6
  %7 = tail call i32 @test_ptr(ptr noundef nonnull @.str, i32 noundef 868, ptr noundef nonnull @.str.35, ptr noundef %6) #6
  %.not24 = icmp eq i32 %7, 0
  br i1 %.not24, label %53, label %8

8:                                                ; preds = %5
  %9 = tail call ptr @BN_bin2bn(ptr noundef nonnull @test_evp_pkey_get_bn_param_large.e_data, i32 noundef 3, ptr noundef null) #6
  %10 = tail call i32 @test_ptr(ptr noundef nonnull @.str, i32 noundef 869, ptr noundef nonnull @.str.36, ptr noundef %9) #6
  %.not25 = icmp eq i32 %10, 0
  br i1 %.not25, label %53, label %11

11:                                               ; preds = %8
  %12 = tail call ptr @BN_bin2bn(ptr noundef nonnull @test_evp_pkey_get_bn_param_large.d_data, i32 noundef 4, ptr noundef null) #6
  %13 = tail call i32 @test_ptr(ptr noundef nonnull @.str, i32 noundef 870, ptr noundef nonnull @.str.37, ptr noundef %12) #6
  %.not26 = icmp eq i32 %13, 0
  br i1 %.not26, label %53, label %14

14:                                               ; preds = %11
  %15 = tail call i32 @OSSL_PARAM_BLD_push_BN(ptr noundef %3, ptr noundef nonnull @.str.39, ptr noundef %6) #6
  %16 = icmp ne i32 %15, 0
  %17 = zext i1 %16 to i32
  %18 = tail call i32 @test_true(ptr noundef nonnull @.str, i32 noundef 871, ptr noundef nonnull @.str.38, i32 noundef %17) #6
  %.not27 = icmp eq i32 %18, 0
  br i1 %.not27, label %53, label %19

19:                                               ; preds = %14
  %20 = tail call i32 @OSSL_PARAM_BLD_push_BN(ptr noundef %3, ptr noundef nonnull @.str.41, ptr noundef %9) #6
  %21 = icmp ne i32 %20, 0
  %22 = zext i1 %21 to i32
  %23 = tail call i32 @test_true(ptr noundef nonnull @.str, i32 noundef 872, ptr noundef nonnull @.str.40, i32 noundef %22) #6
  %.not28 = icmp eq i32 %23, 0
  br i1 %.not28, label %53, label %24

24:                                               ; preds = %19
  %25 = tail call i32 @OSSL_PARAM_BLD_push_BN(ptr noundef %3, ptr noundef nonnull @.str.43, ptr noundef %12) #6
  %26 = icmp ne i32 %25, 0
  %27 = zext i1 %26 to i32
  %28 = tail call i32 @test_true(ptr noundef nonnull @.str, i32 noundef 873, ptr noundef nonnull @.str.42, i32 noundef %27) #6
  %.not29 = icmp eq i32 %28, 0
  br i1 %.not29, label %53, label %29

29:                                               ; preds = %24
  %30 = tail call ptr @OSSL_PARAM_BLD_to_param(ptr noundef %3) #6
  %31 = tail call i32 @test_ptr(ptr noundef nonnull @.str, i32 noundef 874, ptr noundef nonnull @.str.44, ptr noundef %30) #6
  %.not30 = icmp eq i32 %31, 0
  br i1 %.not30, label %53, label %32

32:                                               ; preds = %29
  %33 = tail call ptr @EVP_PKEY_CTX_new_from_name(ptr noundef null, ptr noundef nonnull @.str.46, ptr noundef null) #6
  %34 = tail call i32 @test_ptr(ptr noundef nonnull @.str, i32 noundef 875, ptr noundef nonnull @.str.45, ptr noundef %33) #6
  %.not31 = icmp eq i32 %34, 0
  br i1 %.not31, label %53, label %35

35:                                               ; preds = %32
  %36 = tail call i32 @EVP_PKEY_fromdata_init(ptr noundef %33) #6
  %37 = tail call i32 @test_int_eq(ptr noundef nonnull @.str, i32 noundef 876, ptr noundef nonnull @.str.47, ptr noundef nonnull @.str.23, i32 noundef %36, i32 noundef 1) #6
  %.not32 = icmp eq i32 %37, 0
  br i1 %.not32, label %53, label %38

38:                                               ; preds = %35
  %39 = call i32 @EVP_PKEY_fromdata(ptr noundef %33, ptr noundef nonnull %1, i32 noundef 135, ptr noundef %30) #6
  %40 = call i32 @test_int_eq(ptr noundef nonnull @.str, i32 noundef 878, ptr noundef nonnull @.str.48, ptr noundef nonnull @.str.23, i32 noundef %39, i32 noundef 1) #6
  %.not33 = icmp eq i32 %40, 0
  br i1 %.not33, label %53, label %41

41:                                               ; preds = %38
  %42 = load ptr, ptr %1, align 8, !tbaa !15
  %43 = call ptr @EVP_PKEY_CTX_new_from_pkey(ptr noundef null, ptr noundef %42, ptr noundef nonnull @.str.50) #6
  %44 = call i32 @test_ptr(ptr noundef nonnull @.str, i32 noundef 879, ptr noundef nonnull @.str.49, ptr noundef %43) #6
  %.not34 = icmp eq i32 %44, 0
  br i1 %.not34, label %53, label %45

45:                                               ; preds = %41
  %46 = load ptr, ptr %1, align 8, !tbaa !15
  %47 = call i32 @EVP_PKEY_get_bn_param(ptr noundef %46, ptr noundef nonnull @.str.39, ptr noundef nonnull %2) #6
  %48 = icmp ne i32 %47, 0
  %49 = zext i1 %48 to i32
  %50 = call i32 @test_true(ptr noundef nonnull @.str, i32 noundef 880, ptr noundef nonnull @.str.51, i32 noundef %49) #6
  %.not35 = icmp eq i32 %50, 0
  %.pre37 = load ptr, ptr %2, align 8, !tbaa !17
  br i1 %.not35, label %53, label %51

51:                                               ; preds = %45
  %52 = call i32 @test_BN_eq(ptr noundef nonnull @.str, i32 noundef 881, ptr noundef nonnull @.str.39, ptr noundef nonnull @.str.52, ptr noundef %6, ptr noundef %.pre37) #6
  %.not36 = icmp ne i32 %52, 0
  %spec.select = zext i1 %.not36 to i32
  %.pre = load ptr, ptr %2, align 8, !tbaa !17
  br label %53

53:                                               ; preds = %51, %0, %5, %8, %11, %14, %19, %24, %29, %32, %35, %38, %41, %45
  %54 = phi ptr [ %.pre37, %45 ], [ null, %41 ], [ null, %38 ], [ null, %35 ], [ null, %32 ], [ null, %29 ], [ null, %24 ], [ null, %19 ], [ null, %14 ], [ null, %11 ], [ null, %8 ], [ null, %5 ], [ null, %0 ], [ %.pre, %51 ]
  %.023 = phi i32 [ 0, %45 ], [ 0, %41 ], [ 0, %38 ], [ 0, %35 ], [ 0, %32 ], [ 0, %29 ], [ 0, %24 ], [ 0, %19 ], [ 0, %14 ], [ 0, %11 ], [ 0, %8 ], [ 0, %5 ], [ 0, %0 ], [ %spec.select, %51 ]
  %.022 = phi ptr [ %33, %45 ], [ %33, %41 ], [ %33, %38 ], [ %33, %35 ], [ %33, %32 ], [ null, %29 ], [ null, %24 ], [ null, %19 ], [ null, %14 ], [ null, %11 ], [ null, %8 ], [ null, %5 ], [ null, %0 ], [ %33, %51 ]
  %.021 = phi ptr [ %43, %45 ], [ %43, %41 ], [ null, %38 ], [ null, %35 ], [ null, %32 ], [ null, %29 ], [ null, %24 ], [ null, %19 ], [ null, %14 ], [ null, %11 ], [ null, %8 ], [ null, %5 ], [ null, %0 ], [ %43, %51 ]
  %.020 = phi ptr [ %30, %45 ], [ %30, %41 ], [ %30, %38 ], [ %30, %35 ], [ %30, %32 ], [ %30, %29 ], [ null, %24 ], [ null, %19 ], [ null, %14 ], [ null, %11 ], [ null, %8 ], [ null, %5 ], [ null, %0 ], [ %30, %51 ]
  %.019 = phi ptr [ %6, %45 ], [ %6, %41 ], [ %6, %38 ], [ %6, %35 ], [ %6, %32 ], [ %6, %29 ], [ %6, %24 ], [ %6, %19 ], [ %6, %14 ], [ %6, %11 ], [ %6, %8 ], [ %6, %5 ], [ null, %0 ], [ %6, %51 ]
  %.018 = phi ptr [ %9, %45 ], [ %9, %41 ], [ %9, %38 ], [ %9, %35 ], [ %9, %32 ], [ %9, %29 ], [ %9, %24 ], [ %9, %19 ], [ %9, %14 ], [ %9, %11 ], [ %9, %8 ], [ null, %5 ], [ null, %0 ], [ %9, %51 ]
  %.0 = phi ptr [ %12, %45 ], [ %12, %41 ], [ %12, %38 ], [ %12, %35 ], [ %12, %32 ], [ %12, %29 ], [ %12, %24 ], [ %12, %19 ], [ %12, %14 ], [ %12, %11 ], [ null, %8 ], [ null, %5 ], [ null, %0 ], [ %12, %51 ]
  call void @BN_free(ptr noundef %54) #6
  call void @BN_free(ptr noundef %.019) #6
  call void @BN_free(ptr noundef %.018) #6
  call void @BN_free(ptr noundef %.0) #6
  %55 = load ptr, ptr %1, align 8, !tbaa !15
  call void @EVP_PKEY_free(ptr noundef %55) #6
  call void @EVP_PKEY_CTX_free(ptr noundef %.021) #6
  call void @EVP_PKEY_CTX_free(ptr noundef %.022) #6
  call void @OSSL_PARAM_free(ptr noundef %.020) #6
  call void @OSSL_PARAM_BLD_free(ptr noundef %3) #6
  call void @llvm.lifetime.end.p0(i64 8, ptr nonnull %2) #6
  call void @llvm.lifetime.end.p0(i64 8, ptr nonnull %1) #6
  ret i32 %.023
}